; ModuleID = '56/379.c'
source_filename = "56/379.c"
target datalayout = "e-m:e-p270:32:32-p271:32:32-p272:64:64-i64:64-f80:128-n8:16:32:64-S128"
target triple = "x86_64-pc-linux-gnu"

@.str = private unnamed_addr constant [3 x i8] c"%d\00", align 1
@.str.1 = private unnamed_addr constant [4 x i8] c"%d\0A\00", align 1

; Function Attrs: noinline nounwind uwtable
define dso_local i32 @main(i32 %0, i8** %1) #0 {
  %3 = alloca i32, align 4
  %4 = alloca i32, align 4
  %5 = alloca i8**, align 8
  %6 = alloca i32, align 4
  %7 = alloca i32, align 4
  %8 = alloca i32, align 4
  %9 = alloca i32, align 4
  %10 = alloca i32, align 4
  %11 = alloca i32, align 4
  %12 = alloca i32, align 4
  store i32 0, i32* %3, align 4
  store i32 %0, i32* %4, align 4
  store i8** %1, i8*** %5, align 8
  %13 = call i32 (i8*, ...) @__isoc99_scanf(i8* getelementptr inbounds ([3 x i8], [3 x i8]* @.str, i64 0, i64 0), i32* %6)
  %14 = load i32, i32* %6, align 4
  %15 = sdiv i32 %14, 10000
  store i32 %15, i32* %7, align 4
  %16 = load i32, i32* %6, align 4
  %17 = load i32, i32* %7, align 4
  %18 = mul nsw i32 10000, %17
  %19 = sub nsw i32 %16, %18
  %20 = sdiv i32 %19, 1000
  store i32 %20, i32* %8, align 4
  %21 = load i32, i32* %6, align 4
  %22 = load i32, i32* %8, align 4
  %23 = mul nsw i32 1000, %22
  %24 = sub nsw i32 %21, %23
  %25 = load i32, i32* %7, align 4
  %26 = mul nsw i32 10000, %25
  %27 = sub nsw i32 %24, %26
  %28 = sdiv i32 %27, 100
  store i32 %28, i32* %9, align 4
  %29 = load i32, i32* %6, align 4
  %30 = load i32, i32* %7, align 4
  %31 = mul nsw i32 10000, %30
  %32 = sub nsw i32 %29, %31
  %33 = load i32, i32* %8, align 4
  %34 = mul nsw i32 1000, %33
  %35 = sub nsw i32 %32, %34
  %36 = load i32, i32* %9, align 4
  %37 = mul nsw i32 100, %36
  %38 = sub nsw i32 %35, %37
  %39 = sdiv i32 %38, 10
  store i32 %39, i32* %10, align 4
  %40 = load i32, i32* %6, align 4
  %41 = load i32, i32* %7, align 4
  %42 = mul nsw i32 10000, %41
  %43 = sub nsw i32 %40, %42
  %44 = load i32, i32* %8, align 4
  %45 = mul nsw i32 1000, %44
  %46 = sub nsw i32 %43, %45
  %47 = load i32, i32* %9, align 4
  %48 = mul nsw i32 100, %47
  %49 = sub nsw i32 %46, %48
  %50 = load i32, i32* %10, align 4
  %51 = mul nsw i32 10, %50
  %52 = sub nsw i32 %49, %51
  store i32 %52, i32* %11, align 4
  %53 = load i32, i32* %7, align 4
  %54 = icmp eq i32 %53, 0
  br i1 %54, label %55, label %85

55:                                               ; preds = %2
  %56 = load i32, i32* %11, align 4
  %57 = mul nsw i32 %56, 1000
  %58 = load i32, i32* %10, align 4
  %59 = mul nsw i32 %58, 100
  %60 = add nsw i32 %57, %59
  %61 = load i32, i32* %9, align 4
  %62 = mul nsw i32 %61, 10
  %63 = add nsw i32 %60, %62
  %64 = load i32, i32* %8, align 4
  %65 = add nsw i32 %63, %64
  store i32 %65, i32* %12, align 4
  %66 = load i32, i32* %8, align 4
  %67 = icmp eq i32 %66, 0
  br i1 %67, label %68, label %76

68:                                               ; preds = %55
  %69 = load i32, i32* %11, align 4
  %70 = mul nsw i32 %69, 100
  %71 = load i32, i32* %10, align 4
  %72 = mul nsw i32 %71, 10
  %73 = add nsw i32 %70, %72
  %74 = load i32, i32* %9, align 4
  %75 = add nsw i32 %73, %74
  store i32 %75, i32* %12, align 4
  br label %76

76:                                               ; preds = %68, %55
  %77 = load i32, i32* %9, align 4
  %78 = icmp eq i32 %77, 0
  br i1 %78, label %79, label %84

79:                                               ; preds = %76
  %80 = load i32, i32* %11, align 4
  %81 = mul nsw i32 %80, 10
  %82 = load i32, i32* %10, align 4
  %83 = add nsw i32 %81, %82
  store i32 %83, i32* %12, align 4
  br label %84

84:                                               ; preds = %79, %76
  br label %99

85:                                               ; preds = %2
  %86 = load i32, i32* %11, align 4
  %87 = mul nsw i32 %86, 10000
  %88 = load i32, i32* %10, align 4
  %89 = mul nsw i32 %88, 1000
  %90 = add nsw i32 %87, %89
  %91 = load i32, i32* %9, align 4
  %92 = mul nsw i32 %91, 100
  %93 = add nsw i32 %90, %92
  %94 = load i32, i32* %8, align 4
  %95 = mul nsw i32 %94, 10
  %96 = add nsw i32 %93, %95
  %97 = load i32, i32* %7, align 4
  %98 = add nsw i32 %96, %97
  store i32 %98, i32* %12, align 4
  br label %99

99:                                               ; preds = %85, %84
  %100 = load i32, i32* %12, align 4
  %101 = call i32 (i8*, ...) @printf(i8* getelementptr inbounds ([4 x i8], [4 x i8]* @.str.1, i64 0, i64 0), i32 %100)
  ret i32 0
}

declare dso_local i32 @__isoc99_scanf(i8*, ...) #1

declare dso_local i32 @printf(i8*, ...) #1


!llvm.module.flags = !{!0}
!llvm.ident = !{!1}

!0 = !{i32 1, !"wchar_size", i32 4}
!1 = !{!"clang version 10.0.0-4ubuntu1 "}
